target datalayout = "e-m:e-p270:32:32-p271:32:32-p272:64:64-i64:64-i128:128-f80:128-n8:16:32:64-S128"
target triple = "x86_64-pc-linux-gnu"

%struct.ssl_connection_st = type { %struct.ssl_st, ptr, i32, ptr, ptr, ptr, i32, ptr, i32, i32, i32, i32, %struct.OSSL_TIME, %struct.OSSL_TIME, %struct.ossl_statem_st, i32, ptr, ptr, i64, i64, i64, %struct.ossl_quic_tls_callbacks_st, ptr, ptr, %struct.anon, ptr, ptr, ptr, i32, ptr, %struct.ssl_dane_st, ptr, ptr, ptr, ptr, i32, [64 x i8], [64 x i8], [64 x i8], [64 x i8], [64 x i8], [64 x i8], [64 x i8], [64 x i8], [64 x i8], [64 x i8], [64 x i8], [64 x i8], ptr, [64 x i8], i64, i32, i64, [32 x i8], ptr, ptr, ptr, i64, ptr, [32 x i8], i64, i32, ptr, ptr, i32, i32, ptr, ptr, ptr, ptr, ptr, i64, ptr, ptr, i64, i32, i32, i32, i64, i32, i32, i64, i64, i64, %struct.anon.1, ptr, i32, ptr, ptr, ptr, i32, ptr, ptr, ptr, i32, i32, i32, i32, ptr, i64, i32, ptr, %struct.srp_ctx_st, ptr, %struct.record_layer_st, ptr, ptr, ptr, ptr, i64, i32, i32, i32, i64, i64, i64, ptr, ptr, ptr, ptr, ptr, i64, ptr, i64, ptr, i64 }
%struct.ssl_st = type { i32, ptr, ptr, ptr, %struct.CRYPTO_REF_COUNT, ptr, %struct.crypto_ex_data_st }
%struct.CRYPTO_REF_COUNT = type { i32 }
%struct.crypto_ex_data_st = type { ptr, ptr }
%struct.OSSL_TIME = type { i64 }
%struct.ossl_statem_st = type { i32, i32, i32, i32, i32, i32, i32, i32, i32, i32, i32, i32, i32, ptr, ptr, ptr, i8 }
%struct.ossl_quic_tls_callbacks_st = type { ptr, ptr, ptr, ptr, ptr, ptr }
%struct.anon = type { i64, [32 x i8], [32 x i8], ptr, ptr, i32, i32, i32, i32, [2 x i8], i32, i32, i32, i32, %struct.anon.0, [64 x i8], i64, [64 x i8], i64, i32, i32, ptr, i64, ptr, i64, i32, i8, i8, i16, ptr, i16 }
%struct.anon.0 = type { [128 x i8], i64, [128 x i8], i64, i64, i32, ptr, ptr, [4 x ptr], [4 x i16], i64, i32, ptr, i64, ptr, i64, ptr, ptr, ptr, i32, i64, ptr, i32, ptr, i64, ptr, i64, ptr, i64, ptr, ptr, ptr, ptr, i64, i64, ptr, ptr, i32, i32, i32, i32 }
%struct.ssl_dane_st = type { ptr, ptr, ptr, ptr, ptr, i32, i32, i32, i64 }
%struct.anon.1 = type { [29 x i8], ptr, ptr, ptr, i32, ptr, i16, i32, %struct.anon.2, i32, i32, i64, ptr, i64, ptr, i64, ptr, i64, ptr, i64, ptr, i64, ptr, ptr, ptr, ptr, ptr, ptr, ptr, i64, ptr, i64, i32, i32, i32, i32, ptr, i64, i32, i8, i32, [4 x i32], i32, i8, i8, i8, i8 }
%struct.anon.2 = type { ptr, ptr, ptr, i64 }
%struct.srp_ctx_st = type { ptr, ptr, ptr, ptr, ptr, ptr, ptr, ptr, ptr, ptr, ptr, ptr, ptr, ptr, i32, i64 }
%struct.record_layer_st = type { ptr, ptr, ptr, ptr, ptr, ptr, ptr, ptr, i64, i32, i64, [4 x i8], i64, i64, i8, ptr, i32, ptr, ptr, ptr, i64, i64, i64, i64, [32 x %struct.tls_record_st] }
%struct.tls_record_st = type { ptr, i32, i8, ptr, ptr, i64, i64, i16, [8 x i8] }
%struct.ssl_method_st = type { i32, i32, i64, ptr, ptr, ptr, ptr, ptr, ptr, ptr, ptr, ptr, ptr, ptr, ptr, ptr, ptr, ptr, ptr, ptr, ptr, ptr, ptr, ptr, ptr, ptr, ptr, ptr, ptr, ptr, ptr, ptr }
%struct.ssl3_enc_method = type { ptr, ptr, ptr, ptr, ptr, i64, ptr, i64, ptr, ptr, i32, ptr, ptr, ptr }
%struct.dtls_record_layer_st = type { i16, i16, ptr }
%struct.pitem_st = type { [8 x i8], ptr, ptr }

; Function Attrs: nounwind uwtable
define i32 @SSL_has_pending(ptr noundef %0) #0 {
  %2 = alloca i32, align 4
  %3 = alloca ptr, align 8
  %4 = alloca ptr, align 8
  %5 = alloca i32, align 4
  %6 = alloca ptr, align 8
  %7 = alloca ptr, align 8
  %8 = alloca ptr, align 8
  store ptr %0, ptr %3, align 8, !tbaa !16
  call void @llvm.lifetime.start.p0(i64 8, ptr %4) #9
  %9 = load ptr, ptr %3, align 8, !tbaa !16
  %10 = icmp ne ptr %9, null
  br i1 %10, label %11, label %20

11:                                               ; preds = %1
  %12 = load ptr, ptr %3, align 8, !tbaa !16
  %13 = getelementptr inbounds nuw %struct.ssl_st, ptr %12, i32 0, i32 0
  %14 = load i32, ptr %13, align 8, !tbaa !29
  %15 = and i32 %14, 128
  %16 = icmp ne i32 %15, 0
  br i1 %16, label %17, label %20

17:                                               ; preds = %11
  %18 = load ptr, ptr %3, align 8, !tbaa !16
  %19 = call i32 @ossl_quic_has_pending(ptr noundef %18)
  store i32 %19, ptr %2, align 4
  store i32 1, ptr %5, align 4
  br label %92

20:                                               ; preds = %11, %1
  %21 = load ptr, ptr %3, align 8, !tbaa !16
  %22 = icmp eq ptr %21, null
  br i1 %22, label %23, label %24

23:                                               ; preds = %20
  br label %45

24:                                               ; preds = %20
  %25 = load ptr, ptr %3, align 8, !tbaa !16
  %26 = getelementptr inbounds nuw %struct.ssl_st, ptr %25, i32 0, i32 0
  %27 = load i32, ptr %26, align 8, !tbaa !29
  %28 = icmp eq i32 %27, 0
  br i1 %28, label %29, label %31

29:                                               ; preds = %24
  %30 = load ptr, ptr %3, align 8, !tbaa !16
  br label %43

31:                                               ; preds = %24
  %32 = load ptr, ptr %3, align 8, !tbaa !16
  %33 = getelementptr inbounds nuw %struct.ssl_st, ptr %32, i32 0, i32 0
  %34 = load i32, ptr %33, align 8, !tbaa !29
  %35 = and i32 %34, 128
  %36 = icmp ne i32 %35, 0
  br i1 %36, label %37, label %40

37:                                               ; preds = %31
  %38 = load ptr, ptr %3, align 8, !tbaa !16
  %39 = call ptr @ossl_quic_obj_get0_handshake_layer(ptr noundef %38)
  br label %41

40:                                               ; preds = %31
  br label %41

41:                                               ; preds = %40, %37
  %42 = phi ptr [ %39, %37 ], [ null, %40 ]
  br label %43

43:                                               ; preds = %41, %29
  %44 = phi ptr [ %30, %29 ], [ %42, %41 ]
  br label %45

45:                                               ; preds = %43, %23
  %46 = phi ptr [ null, %23 ], [ %44, %43 ]
  store ptr %46, ptr %4, align 8, !tbaa !3
  %47 = load ptr, ptr %4, align 8, !tbaa !3
  %48 = getelementptr inbounds nuw %struct.ssl_connection_st, ptr %47, i32 0, i32 0
  %49 = getelementptr inbounds nuw %struct.ssl_st, ptr %48, i32 0, i32 3
  %50 = load ptr, ptr %49, align 8, !tbaa !266
  %51 = getelementptr inbounds nuw %struct.ssl_method_st, ptr %50, i32 0, i32 28
  %52 = load ptr, ptr %51, align 8, !tbaa !267
  %53 = getelementptr inbounds nuw %struct.ssl3_enc_method, ptr %52, i32 0, i32 10
  %54 = load i32, ptr %53, align 8, !tbaa !268
  %55 = and i32 %54, 8
  %56 = icmp ne i32 %55, 0
  br i1 %56, label %57, label %82

57:                                               ; preds = %45
  call void @llvm.lifetime.start.p0(i64 8, ptr %6) #9
  call void @llvm.lifetime.start.p0(i64 8, ptr %7) #9
  call void @llvm.lifetime.start.p0(i64 8, ptr %8) #9
  %58 = load ptr, ptr %4, align 8, !tbaa !3
  %59 = getelementptr inbounds nuw %struct.ssl_connection_st, ptr %58, i32 0, i32 104
  %60 = getelementptr inbounds nuw %struct.record_layer_st, ptr %59, i32 0, i32 17
  %61 = load ptr, ptr %60, align 8, !tbaa !408
  %62 = getelementptr inbounds nuw %struct.dtls_record_layer_st, ptr %61, i32 0, i32 2
  %63 = load ptr, ptr %62, align 8, !tbaa !409
  %64 = call ptr @pqueue_iterator(ptr noundef %63)
  store ptr %64, ptr %8, align 8, !tbaa !412
  br label %65

65:                                               ; preds = %77, %57
  %66 = call ptr @pqueue_next(ptr noundef %8)
  store ptr %66, ptr %7, align 8, !tbaa !412
  %67 = icmp ne ptr %66, null
  br i1 %67, label %68, label %78

68:                                               ; preds = %65
  %69 = load ptr, ptr %7, align 8, !tbaa !412
  %70 = getelementptr inbounds nuw %struct.pitem_st, ptr %69, i32 0, i32 1
  %71 = load ptr, ptr %70, align 8, !tbaa !414
  store ptr %71, ptr %6, align 8, !tbaa !416
  %72 = load ptr, ptr %6, align 8, !tbaa !416
  %73 = getelementptr inbounds nuw %struct.tls_record_st, ptr %72, i32 0, i32 5
  %74 = load i64, ptr %73, align 8, !tbaa !418
  %75 = icmp ugt i64 %74, 0
  br i1 %75, label %76, label %77

76:                                               ; preds = %68
  store i32 1, ptr %2, align 4
  store i32 1, ptr %5, align 4
  br label %79

77:                                               ; preds = %68
  br label %65, !llvm.loop !420

78:                                               ; preds = %65
  store i32 0, ptr %5, align 4
  br label %79

79:                                               ; preds = %78, %76
  call void @llvm.lifetime.end.p0(i64 8, ptr %8) #9
  call void @llvm.lifetime.end.p0(i64 8, ptr %7) #9
  call void @llvm.lifetime.end.p0(i64 8, ptr %6) #9
  %80 = load i32, ptr %5, align 4
  switch i32 %80, label %92 [
    i32 0, label %81
  ]

81:                                               ; preds = %79
  br label %82

82:                                               ; preds = %81, %45
  %83 = load ptr, ptr %4, align 8, !tbaa !3
  %84 = getelementptr inbounds nuw %struct.ssl_connection_st, ptr %83, i32 0, i32 104
  %85 = call i32 @RECORD_LAYER_processed_read_pending(ptr noundef %84)
  %86 = icmp ne i32 %85, 0
  br i1 %86, label %87, label %88

87:                                               ; preds = %82
  store i32 1, ptr %2, align 4
  store i32 1, ptr %5, align 4
  br label %92

88:                                               ; preds = %82
  %89 = load ptr, ptr %4, align 8, !tbaa !3
  %90 = getelementptr inbounds nuw %struct.ssl_connection_st, ptr %89, i32 0, i32 104
  %91 = call i32 @RECORD_LAYER_read_pending(ptr noundef %90)
  store i32 %91, ptr %2, align 4
  store i32 1, ptr %5, align 4
  br label %92

92:                                               ; preds = %88, %87, %79, %17
  call void @llvm.lifetime.end.p0(i64 8, ptr %4) #9
  %93 = load i32, ptr %2, align 4
  ret i32 %93
}