; Function Attrs: nounwind uwtable
define i32 @SSL_has_pending(ptr noundef %0) local_unnamed_addr #0 {
  %2 = alloca ptr, align 8
  %cond = icmp eq ptr %0, null
  br i1 %cond, label %10, label %3

3:                                                ; preds = %1
  %4 = load i32, ptr %0, align 8, !tbaa !19
  %5 = and i32 %4, 128
  %.not19 = icmp eq i32 %5, 0
  br i1 %.not19, label %8, label %6

6:                                                ; preds = %3
  %7 = tail call i32 @ossl_quic_has_pending(ptr noundef nonnull %0) #20
  br label %38

8:                                                ; preds = %3
  %9 = icmp eq i32 %4, 0
  %spec.select = select i1 %9, ptr %0, ptr null
  br label %10

10:                                               ; preds = %8, %1
  %11 = phi ptr [ null, %1 ], [ %spec.select, %8 ]
  %12 = getelementptr inbounds nuw i8, ptr %11, i64 24
  %13 = load ptr, ptr %12, align 8, !tbaa !245
  %14 = getelementptr inbounds nuw i8, ptr %13, i64 216
  %15 = load ptr, ptr %14, align 8, !tbaa !246
  %16 = getelementptr inbounds nuw i8, ptr %15, i64 80
  %17 = load i32, ptr %16, align 8, !tbaa !247
  %18 = and i32 %17, 8
  %.not21 = icmp eq i32 %18, 0
  br i1 %.not21, label %33, label %19

19:                                               ; preds = %10
  call void @llvm.lifetime.start.p0(i64 8, ptr nonnull %2) #20
  %20 = getelementptr inbounds nuw i8, ptr %11, i64 3296
  %21 = load ptr, ptr %20, align 8, !tbaa !371
  %22 = getelementptr inbounds nuw i8, ptr %21, i64 8
  %23 = load ptr, ptr %22, align 8, !tbaa !372
  %24 = tail call ptr @pqueue_iterator(ptr noundef %23) #20
  store ptr %24, ptr %2, align 8, !tbaa !375
  br label %25

25:                                               ; preds = %27, %19
  %26 = call ptr @pqueue_next(ptr noundef nonnull %2) #20
  %.not22 = icmp eq ptr %26, null
  br i1 %.not22, label %.critedge, label %27

27:                                               ; preds = %25
  %28 = getelementptr inbounds nuw i8, ptr %26, i64 8
  %29 = load ptr, ptr %28, align 8, !tbaa !377
  %30 = getelementptr inbounds nuw i8, ptr %29, i64 32
  %31 = load i64, ptr %30, align 8, !tbaa !379
  %.not23 = icmp eq i64 %31, 0
  br i1 %.not23, label %25, label %32, !llvm.loop !381

32:                                               ; preds = %27
  call void @llvm.lifetime.end.p0(i64 8, ptr nonnull %2) #20
  br label %38

.critedge:                                        ; preds = %25
  call void @llvm.lifetime.end.p0(i64 8, ptr nonnull %2) #20
  br label %33

33:                                               ; preds = %.critedge, %10
  %34 = getelementptr inbounds nuw i8, ptr %11, i64 3160
  %35 = call i32 @RECORD_LAYER_processed_read_pending(ptr noundef nonnull %34) #20
  %.not24 = icmp eq i32 %35, 0
  br i1 %.not24, label %36, label %38

36:                                               ; preds = %33
  %37 = call i32 @RECORD_LAYER_read_pending(ptr noundef nonnull %34) #20
  br label %38

38:                                               ; preds = %32, %33, %36, %6
  %.0 = phi i32 [ %7, %6 ], [ %37, %36 ], [ 1, %32 ], [ 1, %33 ]
  ret i32 %.0
}